; ModuleID = '10/542.cpp'
source_filename = "10/542.cpp"
target datalayout = "e-m:e-p270:32:32-p271:32:32-p272:64:64-i64:64-f80:128-n8:16:32:64-S128"
target triple = "x86_64-pc-linux-gnu"

%"class.std::ios_base::Init" = type { i8 }
%"class.std::basic_istream" = type { i32 (...)**, i64, %"class.std::basic_ios" }
%"class.std::basic_ios" = type { %"class.std::ios_base", %"class.std::basic_ostream"*, i8, i8, %"class.std::basic_streambuf"*, %"class.std::ctype"*, %"class.std::num_put"*, %"class.std::num_get"* }
%"class.std::ios_base" = type { i32 (...)**, i64, i64, i32, i32, i32, %"struct.std::ios_base::_Callback_list"*, %"struct.std::ios_base::_Words", [8 x %"struct.std::ios_base::_Words"], i32, %"struct.std::ios_base::_Words"*, %"class.std::locale" }
%"struct.std::ios_base::_Callback_list" = type { %"struct.std::ios_base::_Callback_list"*, void (i32, %"class.std::ios_base"*, i32)*, i32, i32 }
%"struct.std::ios_base::_Words" = type { i8*, i64 }
%"class.std::locale" = type { %"class.std::locale::_Impl"* }
%"class.std::locale::_Impl" = type { i32, %"class.std::locale::facet"**, i64, %"class.std::locale::facet"**, i8** }
%"class.std::locale::facet" = type <{ i32 (...)**, i32, [4 x i8] }>
%"class.std::basic_ostream" = type { i32 (...)**, %"class.std::basic_ios" }
%"class.std::basic_streambuf" = type { i32 (...)**, i8*, i8*, i8*, i8*, i8*, i8*, %"class.std::locale" }
%"class.std::ctype" = type <{ %"class.std::locale::facet.base", [4 x i8], %struct.__locale_struct*, i8, [7 x i8], i32*, i32*, i16*, i8, [256 x i8], [256 x i8], i8, [6 x i8] }>
%"class.std::locale::facet.base" = type <{ i32 (...)**, i32 }>
%struct.__locale_struct = type { [13 x %struct.__locale_data*], i16*, i32*, i32*, [13 x i8*] }
%struct.__locale_data = type opaque
%"class.std::num_put" = type { %"class.std::locale::facet.base", [4 x i8] }
%"class.std::num_get" = type { %"class.std::locale::facet.base", [4 x i8] }

@_ZStL8__ioinit = internal global %"class.std::ios_base::Init" zeroinitializer, align 1
@__dso_handle = external hidden global i8
@c = dso_local global [25 x i32] zeroinitializer, align 16
@d = dso_local global [25 x i32] zeroinitializer, align 16
@k = dso_local global i32 0, align 4
@_ZSt3cin = external dso_local global %"class.std::basic_istream", align 8
@_ZSt4cout = external dso_local global %"class.std::basic_ostream", align 8
@llvm.global_ctors = appending global [1 x { i32, void ()*, i8* }] [{ i32, void ()*, i8* } { i32 65535, void ()* @_GLOBAL__sub_I_542.cpp, i8* null }]

; Function Attrs: noinline uwtable
define internal void @__cxx_global_var_init() #0 section ".text.startup" {
  call void @_ZNSt8ios_base4InitC1Ev(%"class.std::ios_base::Init"* @_ZStL8__ioinit)
  %1 = call i32 @__cxa_atexit(void (i8*)* bitcast (void (%"class.std::ios_base::Init"*)* @_ZNSt8ios_base4InitD1Ev to void (i8*)*), i8* getelementptr inbounds (%"class.std::ios_base::Init", %"class.std::ios_base::Init"* @_ZStL8__ioinit, i32 0, i32 0), i8* @__dso_handle) #3
  ret void
}

declare dso_local void @_ZNSt8ios_base4InitC1Ev(%"class.std::ios_base::Init"*) unnamed_addr #1

; Function Attrs: nounwind
declare dso_local void @_ZNSt8ios_base4InitD1Ev(%"class.std::ios_base::Init"*) unnamed_addr #2

; Function Attrs: nounwind
declare dso_local i32 @__cxa_atexit(void (i8*)*, i8*, i8*) #3

; Function Attrs: noinline uwtable
define dso_local i32 @_Z1Di(i32 %0) #0 {
  %2 = alloca i32, align 4
  %3 = alloca i32, align 4
  %4 = alloca i32, align 4
  store i32 %0, i32* %2, align 4
  store i32 1, i32* %3, align 4
  %5 = load i32, i32* %2, align 4
  %6 = add nsw i32 %5, 1
  store i32 %6, i32* %4, align 4
  br label %7

7:                                                ; preds = %33, %1
  %8 = load i32, i32* %4, align 4
  %9 = load i32, i32* @k, align 4
  %10 = sub nsw i32 %9, 1
  %11 = icmp sle i32 %8, %10
  br i1 %11, label %12, label %36

12:                                               ; preds = %7
  %13 = load i32, i32* %4, align 4
  %14 = sext i32 %13 to i64
  %15 = getelementptr inbounds [25 x i32], [25 x i32]* @c, i64 0, i64 %14
  %16 = load i32, i32* %15, align 4
  %17 = load i32, i32* %2, align 4
  %18 = sext i32 %17 to i64
  %19 = getelementptr inbounds [25 x i32], [25 x i32]* @c, i64 0, i64 %18
  %20 = load i32, i32* %19, align 4
  %21 = icmp sle i32 %16, %20
  br i1 %21, label %22, label %32

22:                                               ; preds = %12
  %23 = load i32, i32* %3, align 4
  %24 = load i32, i32* %4, align 4
  %25 = call i32 @_Z1Di(i32 %24)
  %26 = add nsw i32 %25, 1
  %27 = icmp slt i32 %23, %26
  br i1 %27, label %28, label %32

28:                                               ; preds = %22
  %29 = load i32, i32* %4, align 4
  %30 = call i32 @_Z1Di(i32 %29)
  %31 = add nsw i32 %30, 1
  store i32 %31, i32* %3, align 4
  br label %32

32:                                               ; preds = %28, %22, %12
  br label %33

33:                                               ; preds = %32
  %34 = load i32, i32* %4, align 4
  %35 = add nsw i32 %34, 1
  store i32 %35, i32* %4, align 4
  br label %7

36:                                               ; preds = %7
  %37 = load i32, i32* %3, align 4
  ret i32 %37
}

; Function Attrs: noinline norecurse uwtable
define dso_local i32 @main() #4 {
  %1 = alloca i32, align 4
  %2 = alloca i32, align 4
  %3 = alloca i32, align 4
  %4 = alloca i32, align 4
  store i32 0, i32* %1, align 4
  store i32 0, i32* %2, align 4
  %5 = call dereferenceable(280) %"class.std::basic_istream"* @_ZNSirsERi(%"class.std::basic_istream"* @_ZSt3cin, i32* dereferenceable(4) @k)
  store i32 0, i32* %3, align 4
  br label %6

6:                                                ; preds = %15, %0
  %7 = load i32, i32* %3, align 4
  %8 = load i32, i32* @k, align 4
  %9 = icmp slt i32 %7, %8
  br i1 %9, label %10, label %18

10:                                               ; preds = %6
  %11 = load i32, i32* %3, align 4
  %12 = sext i32 %11 to i64
  %13 = getelementptr inbounds [25 x i32], [25 x i32]* @c, i64 0, i64 %12
  %14 = call dereferenceable(280) %"class.std::basic_istream"* @_ZNSirsERi(%"class.std::basic_istream"* @_ZSt3cin, i32* dereferenceable(4) %13)
  br label %15

15:                                               ; preds = %10
  %16 = load i32, i32* %3, align 4
  %17 = add nsw i32 %16, 1
  store i32 %17, i32* %3, align 4
  br label %6

18:                                               ; preds = %6
  %19 = load i32, i32* @k, align 4
  %20 = sub nsw i32 %19, 1
  store i32 %20, i32* %4, align 4
  br label %21

21:                                               ; preds = %42, %18
  %22 = load i32, i32* %4, align 4
  %23 = icmp sge i32 %22, 0
  br i1 %23, label %24, label %45

24:                                               ; preds = %21
  %25 = load i32, i32* %4, align 4
  %26 = call i32 @_Z1Di(i32 %25)
  %27 = load i32, i32* %4, align 4
  %28 = sext i32 %27 to i64
  %29 = getelementptr inbounds [25 x i32], [25 x i32]* @d, i64 0, i64 %28
  store i32 %26, i32* %29, align 4
  %30 = load i32, i32* %4, align 4
  %31 = sext i32 %30 to i64
  %32 = getelementptr inbounds [25 x i32], [25 x i32]* @d, i64 0, i64 %31
  %33 = load i32, i32* %32, align 4
  %34 = load i32, i32* %2, align 4
  %35 = icmp sgt i32 %33, %34
  br i1 %35, label %36, label %41

36:                                               ; preds = %24
  %37 = load i32, i32* %4, align 4
  %38 = sext i32 %37 to i64
  %39 = getelementptr inbounds [25 x i32], [25 x i32]* @d, i64 0, i64 %38
  %40 = load i32, i32* %39, align 4
  store i32 %40, i32* %2, align 4
  br label %41

41:                                               ; preds = %36, %24
  br label %42

42:                                               ; preds = %41
  %43 = load i32, i32* %4, align 4
  %44 = add nsw i32 %43, -1
  store i32 %44, i32* %4, align 4
  br label %21

45:                                               ; preds = %21
  %46 = load i32, i32* %2, align 4
  %47 = call dereferenceable(272) %"class.std::basic_ostream"* @_ZNSolsEi(%"class.std::basic_ostream"* @_ZSt4cout, i32 %46)
  ret i32 0
}

declare dso_local dereferenceable(280) %"class.std::basic_istream"* @_ZNSirsERi(%"class.std::basic_istream"*, i32* dereferenceable(4)) #1

declare dso_local dereferenceable(272) %"class.std::basic_ostream"* @_ZNSolsEi(%"class.std::basic_ostream"*, i32) #1

; Function Attrs: noinline uwtable
define internal void @_GLOBAL__sub_I_542.cpp() #0 section ".text.startup" {
  call void @__cxx_global_var_init()
  ret void
}


!llvm.module.flags = !{!0}
!llvm.ident = !{!1}

!0 = !{i32 1, !"wchar_size", i32 4}
!1 = !{!"clang version 10.0.0-4ubuntu1 "}
